target datalayout = "e-m:e-p270:32:32-p271:32:32-p272:64:64-i64:64-i128:128-f80:128-n8:16:32:64-S128"
target triple = "x86_64-pc-linux-gnu"

%struct.ssl_session_st = type { i32, i64, [64 x i8], [512 x i8], i64, [32 x i8], i64, [32 x i8], ptr, ptr, i32, ptr, ptr, ptr, i64, %struct.OSSL_TIME, %struct.OSSL_TIME, %struct.OSSL_TIME, i32, ptr, i64, i32, %struct.crypto_ex_data_st, %struct.anon, ptr, ptr, i64, i32, ptr, ptr, ptr, %struct.CRYPTO_REF_COUNT }
%struct.OSSL_TIME = type { i64 }
%struct.crypto_ex_data_st = type { ptr, ptr }
%struct.anon = type { ptr, ptr, i64, i64, i32, i32, ptr, i64, i8 }
%struct.CRYPTO_REF_COUNT = type { i32 }

@.str.8 = private unnamed_addr constant [5 x i8] c"%02X\00", align 1
@.str.23 = private unnamed_addr constant [2 x i8] c"\0A\00", align 1
@.str.30 = private unnamed_addr constant [5 x i8] c"RSA \00", align 1
@.str.31 = private unnamed_addr constant [12 x i8] c"Session-ID:\00", align 1
@.str.32 = private unnamed_addr constant [13 x i8] c" Master-Key:\00", align 1

; Function Attrs: nounwind uwtable
define i32 @SSL_SESSION_print_keylog(ptr noundef %0, ptr noundef %1) #0 {
  %3 = alloca i32, align 4
  %4 = alloca ptr, align 8
  %5 = alloca ptr, align 8
  %6 = alloca i64, align 8
  %7 = alloca i32, align 4
  store ptr %0, ptr %4, align 8, !tbaa !10
  store ptr %1, ptr %5, align 8, !tbaa !8
  call void @llvm.lifetime.start.p0(i64 8, ptr %6) #4
  %8 = load ptr, ptr %5, align 8, !tbaa !8
  %9 = icmp eq ptr %8, null
  br i1 %9, label %10, label %11

10:                                               ; preds = %2
  br label %87

11:                                               ; preds = %2
  %12 = load ptr, ptr %5, align 8, !tbaa !8
  %13 = getelementptr inbounds nuw %struct.ssl_session_st, ptr %12, i32 0, i32 4
  %14 = load i64, ptr %13, align 8, !tbaa !35
  %15 = icmp eq i64 %14, 0
  br i1 %15, label %21, label %16

16:                                               ; preds = %11
  %17 = load ptr, ptr %5, align 8, !tbaa !8
  %18 = getelementptr inbounds nuw %struct.ssl_session_st, ptr %17, i32 0, i32 1
  %19 = load i64, ptr %18, align 8, !tbaa !41
  %20 = icmp eq i64 %19, 0
  br i1 %20, label %21, label %22

21:                                               ; preds = %16, %11
  br label %87

22:                                               ; preds = %16
  %23 = load ptr, ptr %4, align 8, !tbaa !10
  %24 = call i32 @BIO_puts(ptr noundef %23, ptr noundef @.str.30)
  %25 = icmp sle i32 %24, 0
  br i1 %25, label %26, label %27

26:                                               ; preds = %22
  br label %87

27:                                               ; preds = %22
  %28 = load ptr, ptr %4, align 8, !tbaa !10
  %29 = call i32 @BIO_puts(ptr noundef %28, ptr noundef @.str.31)
  %30 = icmp sle i32 %29, 0
  br i1 %30, label %31, label %32

31:                                               ; preds = %27
  br label %87

32:                                               ; preds = %27
  store i64 0, ptr %6, align 8, !tbaa !34
  br label %33

33:                                               ; preds = %51, %32
  %34 = load i64, ptr %6, align 8, !tbaa !34
  %35 = load ptr, ptr %5, align 8, !tbaa !8
  %36 = getelementptr inbounds nuw %struct.ssl_session_st, ptr %35, i32 0, i32 4
  %37 = load i64, ptr %36, align 8, !tbaa !35
  %38 = icmp ult i64 %34, %37
  br i1 %38, label %39, label %54

39:                                               ; preds = %33
  %40 = load ptr, ptr %4, align 8, !tbaa !10
  %41 = load ptr, ptr %5, align 8, !tbaa !8
  %42 = getelementptr inbounds nuw %struct.ssl_session_st, ptr %41, i32 0, i32 5
  %43 = load i64, ptr %6, align 8, !tbaa !34
  %44 = getelementptr inbounds nuw [32 x i8], ptr %42, i64 0, i64 %43
  %45 = load i8, ptr %44, align 1, !tbaa !36
  %46 = zext i8 %45 to i32
  %47 = call i32 (ptr, ptr, ...) @BIO_printf(ptr noundef %40, ptr noundef @.str.8, i32 noundef %46)
  %48 = icmp sle i32 %47, 0
  br i1 %48, label %49, label %50

49:                                               ; preds = %39
  br label %87

50:                                               ; preds = %39
  br label %51

51:                                               ; preds = %50
  %52 = load i64, ptr %6, align 8, !tbaa !34
  %53 = add i64 %52, 1
  store i64 %53, ptr %6, align 8, !tbaa !34
  br label %33, !llvm.loop !60

54:                                               ; preds = %33
  %55 = load ptr, ptr %4, align 8, !tbaa !10
  %56 = call i32 @BIO_puts(ptr noundef %55, ptr noundef @.str.32)
  %57 = icmp sle i32 %56, 0
  br i1 %57, label %58, label %59

58:                                               ; preds = %54
  br label %87

59:                                               ; preds = %54
  store i64 0, ptr %6, align 8, !tbaa !34
  br label %60

60:                                               ; preds = %78, %59
  %61 = load i64, ptr %6, align 8, !tbaa !34
  %62 = load ptr, ptr %5, align 8, !tbaa !8
  %63 = getelementptr inbounds nuw %struct.ssl_session_st, ptr %62, i32 0, i32 1
  %64 = load i64, ptr %63, align 8, !tbaa !41
  %65 = icmp ult i64 %61, %64
  br i1 %65, label %66, label %81

66:                                               ; preds = %60
  %67 = load ptr, ptr %4, align 8, !tbaa !10
  %68 = load ptr, ptr %5, align 8, !tbaa !8
  %69 = getelementptr inbounds nuw %struct.ssl_session_st, ptr %68, i32 0, i32 3
  %70 = load i64, ptr %6, align 8, !tbaa !34
  %71 = getelementptr inbounds nuw [512 x i8], ptr %69, i64 0, i64 %70
  %72 = load i8, ptr %71, align 1, !tbaa !36
  %73 = zext i8 %72 to i32
  %74 = call i32 (ptr, ptr, ...) @BIO_printf(ptr noundef %67, ptr noundef @.str.8, i32 noundef %73)
  %75 = icmp sle i32 %74, 0
  br i1 %75, label %76, label %77

76:                                               ; preds = %66
  br label %87

77:                                               ; preds = %66
  br label %78

78:                                               ; preds = %77
  %79 = load i64, ptr %6, align 8, !tbaa !34
  %80 = add i64 %79, 1
  store i64 %80, ptr %6, align 8, !tbaa !34
  br label %60, !llvm.loop !61

81:                                               ; preds = %60
  %82 = load ptr, ptr %4, align 8, !tbaa !10
  %83 = call i32 @BIO_puts(ptr noundef %82, ptr noundef @.str.23)
  %84 = icmp sle i32 %83, 0
  br i1 %84, label %85, label %86

85:                                               ; preds = %81
  br label %87

86:                                               ; preds = %81
  store i32 1, ptr %3, align 4
  store i32 1, ptr %7, align 4
  br label %88

87:                                               ; preds = %85, %76, %58, %49, %31, %26, %21, %10
  store i32 0, ptr %3, align 4
  store i32 1, ptr %7, align 4
  br label %88

88:                                               ; preds = %87, %86
  call void @llvm.lifetime.end.p0(i64 8, ptr %6) #4
  %89 = load i32, ptr %3, align 4
  ret i32 %89
}