; Function Attrs: nounwind uwtable
define range(i32 0, 2) i32 @SSL_SESSION_print_keylog(ptr noundef %0, ptr noundef readonly captures(address_is_null) %1) local_unnamed_addr #0 {
  %3 = icmp eq ptr %1, null
  br i1 %3, label %.loopexit, label %4

4:                                                ; preds = %2
  %5 = getelementptr inbounds nuw i8, ptr %1, i64 592
  %6 = load i64, ptr %5, align 8, !tbaa !27
  %7 = icmp eq i64 %6, 0
  br i1 %7, label %.loopexit, label %8

8:                                                ; preds = %4
  %9 = getelementptr inbounds nuw i8, ptr %1, i64 8
  %10 = load i64, ptr %9, align 8, !tbaa !33
  %11 = icmp eq i64 %10, 0
  br i1 %11, label %.loopexit, label %12

12:                                               ; preds = %8
  %13 = tail call i32 @BIO_puts(ptr noundef %0, ptr noundef nonnull @.str.30) #3
  %14 = icmp slt i32 %13, 1
  br i1 %14, label %.loopexit, label %15

15:                                               ; preds = %12
  %16 = tail call i32 @BIO_puts(ptr noundef %0, ptr noundef nonnull @.str.31) #3
  %17 = icmp slt i32 %16, 1
  br i1 %17, label %.loopexit, label %.preheader21

.preheader21:                                     ; preds = %15
  %18 = load i64, ptr %5, align 8, !tbaa !27
  %.not = icmp eq i64 %18, 0
  br i1 %.not, label %._crit_edge, label %.lr.ph

.lr.ph:                                           ; preds = %.preheader21
  %19 = getelementptr inbounds nuw i8, ptr %1, i64 600
  br label %24

20:                                               ; preds = %24
  %21 = add nuw i64 %.023, 1
  %22 = load i64, ptr %5, align 8, !tbaa !27
  %23 = icmp ult i64 %21, %22
  br i1 %23, label %24, label %._crit_edge, !llvm.loop !51

24:                                               ; preds = %.lr.ph, %20
  %.023 = phi i64 [ 0, %.lr.ph ], [ %21, %20 ]
  %25 = getelementptr inbounds nuw [32 x i8], ptr %19, i64 0, i64 %.023
  %26 = load i8, ptr %25, align 1, !tbaa !30
  %27 = zext i8 %26 to i32
  %28 = tail call i32 (ptr, ptr, ...) @BIO_printf(ptr noundef %0, ptr noundef nonnull @.str.8, i32 noundef %27) #3
  %29 = icmp slt i32 %28, 1
  br i1 %29, label %.loopexit, label %20

._crit_edge:                                      ; preds = %20, %.preheader21
  %30 = tail call i32 @BIO_puts(ptr noundef %0, ptr noundef nonnull @.str.32) #3
  %31 = icmp slt i32 %30, 1
  br i1 %31, label %.loopexit, label %.preheader

.preheader:                                       ; preds = %._crit_edge
  %32 = load i64, ptr %9, align 8, !tbaa !33
  %.not27 = icmp eq i64 %32, 0
  br i1 %.not27, label %._crit_edge26, label %.lr.ph25

.lr.ph25:                                         ; preds = %.preheader
  %33 = getelementptr inbounds nuw i8, ptr %1, i64 80
  br label %38

34:                                               ; preds = %38
  %35 = add nuw i64 %.124, 1
  %36 = load i64, ptr %9, align 8, !tbaa !33
  %37 = icmp ult i64 %35, %36
  br i1 %37, label %38, label %._crit_edge26, !llvm.loop !52

38:                                               ; preds = %.lr.ph25, %34
  %.124 = phi i64 [ 0, %.lr.ph25 ], [ %35, %34 ]
  %39 = getelementptr inbounds nuw [512 x i8], ptr %33, i64 0, i64 %.124
  %40 = load i8, ptr %39, align 1, !tbaa !30
  %41 = zext i8 %40 to i32
  %42 = tail call i32 (ptr, ptr, ...) @BIO_printf(ptr noundef %0, ptr noundef nonnull @.str.8, i32 noundef %41) #3
  %43 = icmp slt i32 %42, 1
  br i1 %43, label %.loopexit, label %34

._crit_edge26:                                    ; preds = %34, %.preheader
  %44 = tail call i32 @BIO_puts(ptr noundef %0, ptr noundef nonnull @.str.23) #3
  %45 = icmp slt i32 %44, 1
  br i1 %45, label %.loopexit, label %46

.loopexit:                                        ; preds = %24, %38, %._crit_edge26, %._crit_edge, %15, %12, %4, %8, %2
  br label %46

46:                                               ; preds = %._crit_edge26, %.loopexit
  %.019 = phi i32 [ 0, %.loopexit ], [ 1, %._crit_edge26 ]
  ret i32 %.019
}